; Function Attrs: mustprogress uwtable
define void @_ZN7rocksdb19WriteBatchWithIndex12SingleDeleteEPNS_18ColumnFamilyHandleERKNS_5SliceES5_(ptr dead_on_unwind noalias writable sret(%"class.rocksdb::Status") align 8 %0, ptr nonnull readnone align 8 captures(none) %1, ptr noundef readnone %2, ptr nonnull readnone align 8 captures(none) %3, ptr nonnull readnone align 8 captures(none) %4) unnamed_addr #4 align 2 personality ptr @__gxx_personality_v0 {
  %6 = alloca %"class.rocksdb::Slice", align 8
  %7 = alloca %"class.rocksdb::Slice", align 8
  %.not = icmp eq ptr %2, null
  br i1 %.not, label %8, label %11

8:                                                ; preds = %5
  call void @llvm.lifetime.start.p0(i64 16, ptr nonnull %6) #26
  store ptr @.str.43, ptr %6, align 8, !tbaa !133
  %9 = getelementptr inbounds nuw i8, ptr %6, i64 8
  store i64 38, ptr %9, align 8, !tbaa !135
  call void @llvm.lifetime.start.p0(i64 16, ptr nonnull %7) #26
  store ptr @.str, ptr %7, align 8, !tbaa !133
  %10 = getelementptr inbounds nuw i8, ptr %7, i64 8
  store i64 0, ptr %10, align 8, !tbaa !135
  call void @_ZN7rocksdb6StatusC2ENS0_4CodeENS0_7SubCodeERKNS_5SliceES5_NS0_8SeverityE(ptr noundef nonnull align 8 dereferenceable(16) %0, i8 noundef zeroext 4, i8 noundef zeroext 0, ptr noundef nonnull align 8 dereferenceable(16) %6, ptr noundef nonnull align 8 dereferenceable(16) %7, i8 noundef zeroext 0)
  call void @llvm.lifetime.end.p0(i64 16, ptr nonnull %7) #26
  call void @llvm.lifetime.end.p0(i64 16, ptr nonnull %6) #26
  br label %15

11:                                               ; preds = %5
  store i8 3, ptr %0, align 8, !tbaa !174, !alias.scope !237
  %12 = getelementptr inbounds nuw i8, ptr %0, i64 1
  store i8 0, ptr %12, align 1, !tbaa !185, !alias.scope !237
  %13 = getelementptr inbounds nuw i8, ptr %0, i64 2
  %14 = getelementptr inbounds nuw i8, ptr %0, i64 8
  store ptr null, ptr %14, align 8, !tbaa !201, !alias.scope !237
  store i32 0, ptr %13, align 2, !alias.scope !237
  br label %15

15:                                               ; preds = %11, %8
  ret void
}